
dma_benchmark.elf:     file format elf32-littleriscv


Disassembly of section .text:

00001000 <_start>:
    1000:	000ff117          	auipc	sp,0xff
    1004:	00010113          	mv	sp,sp
    1008:	280000ef          	jal	ra,1288 <main>

0000100c <hang>:
    100c:	0000006f          	j	100c <hang>

00001010 <simple_udiv>:
    1010:	00050813          	mv	a6,a0
    1014:	00000513          	li	a0,0
    1018:	04058463          	beqz	a1,1060 <simple_udiv+0x50>
    101c:	01f00713          	li	a4,31
    1020:	00000793          	li	a5,0
    1024:	00100313          	li	t1,1
    1028:	fff00893          	li	a7,-1
    102c:	00e856b3          	srl	a3,a6,a4
    1030:	0016f693          	andi	a3,a3,1
    1034:	00179793          	slli	a5,a5,0x1
    1038:	00f6e7b3          	or	a5,a3,a5
    103c:	00e316b3          	sll	a3,t1,a4
    1040:	fff70713          	addi	a4,a4,-1
    1044:	00b7e663          	bltu	a5,a1,1050 <simple_udiv+0x40>
    1048:	40b787b3          	sub	a5,a5,a1
    104c:	00d56533          	or	a0,a0,a3
    1050:	fd171ee3          	bne	a4,a7,102c <simple_udiv+0x1c>
    1054:	00060663          	beqz	a2,1060 <simple_udiv+0x50>
    1058:	00f62023          	sw	a5,0(a2)
    105c:	00008067          	ret
    1060:	00008067          	ret

00001064 <uart_putc>:
    1064:	ff010113          	addi	sp,sp,-16 # ffff0 <src_buf+0xfd890>
    1068:	10000737          	lui	a4,0x10000
    106c:	00472783          	lw	a5,4(a4) # 10000004 <_stack_top+0xff00004>
    1070:	0027f793          	andi	a5,a5,2
    1074:	fe079ce3          	bnez	a5,106c <uart_putc+0x8>
    1078:	00a72023          	sw	a0,0(a4)
    107c:	00012623          	sw	zero,12(sp)
    1080:	00c12703          	lw	a4,12(sp)
    1084:	1f300793          	li	a5,499
    1088:	00e7ce63          	blt	a5,a4,10a4 <uart_putc+0x40>
    108c:	1f300713          	li	a4,499
    1090:	00c12783          	lw	a5,12(sp)
    1094:	00178793          	addi	a5,a5,1
    1098:	00f12623          	sw	a5,12(sp)
    109c:	00c12783          	lw	a5,12(sp)
    10a0:	fef758e3          	bge	a4,a5,1090 <uart_putc+0x2c>
    10a4:	01010113          	addi	sp,sp,16
    10a8:	00008067          	ret

000010ac <print_str>:
    10ac:	00054603          	lbu	a2,0(a0)
    10b0:	04060a63          	beqz	a2,1104 <print_str+0x58>
    10b4:	ff010113          	addi	sp,sp,-16
    10b8:	10000737          	lui	a4,0x10000
    10bc:	1f300693          	li	a3,499
    10c0:	00150513          	addi	a0,a0,1
    10c4:	00472783          	lw	a5,4(a4) # 10000004 <_stack_top+0xff00004>
    10c8:	0027f793          	andi	a5,a5,2
    10cc:	fe079ce3          	bnez	a5,10c4 <print_str+0x18>
    10d0:	00c72023          	sw	a2,0(a4)
    10d4:	00012623          	sw	zero,12(sp)
    10d8:	00c12783          	lw	a5,12(sp)
    10dc:	00f6cc63          	blt	a3,a5,10f4 <print_str+0x48>
    10e0:	00c12783          	lw	a5,12(sp)
    10e4:	00178793          	addi	a5,a5,1
    10e8:	00f12623          	sw	a5,12(sp)
    10ec:	00c12783          	lw	a5,12(sp)
    10f0:	fef6d8e3          	bge	a3,a5,10e0 <print_str+0x34>
    10f4:	00054603          	lbu	a2,0(a0)
    10f8:	fc0614e3          	bnez	a2,10c0 <print_str+0x14>
    10fc:	01010113          	addi	sp,sp,16
    1100:	00008067          	ret
    1104:	00008067          	ret

00001108 <print_dec>:
    1108:	ff010113          	addi	sp,sp,-16
    110c:	0c050663          	beqz	a0,11d8 <print_dec+0xd0>
    1110:	00000e93          	li	t4,0
    1114:	00410f13          	addi	t5,sp,4
    1118:	fff00313          	li	t1,-1
    111c:	00900e13          	li	t3,9
    1120:	00100893          	li	a7,1
    1124:	01f55713          	srli	a4,a0,0x1f
    1128:	01f00793          	li	a5,31
    112c:	00000813          	li	a6,0
    1130:	fff78793          	addi	a5,a5,-1
    1134:	00f556b3          	srl	a3,a0,a5
    1138:	00171613          	slli	a2,a4,0x1
    113c:	0016f693          	andi	a3,a3,1
    1140:	00f895b3          	sll	a1,a7,a5
    1144:	02678663          	beq	a5,t1,1170 <print_dec+0x68>
    1148:	00c6e733          	or	a4,a3,a2
    114c:	feee72e3          	bgeu	t3,a4,1130 <print_dec+0x28>
    1150:	fff78793          	addi	a5,a5,-1
    1154:	ff670713          	addi	a4,a4,-10
    1158:	00f556b3          	srl	a3,a0,a5
    115c:	00b86833          	or	a6,a6,a1
    1160:	00171613          	slli	a2,a4,0x1
    1164:	0016f693          	andi	a3,a3,1
    1168:	00f895b3          	sll	a1,a7,a5
    116c:	fc679ee3          	bne	a5,t1,1148 <print_dec+0x40>
    1170:	001e8e93          	addi	t4,t4,1
    1174:	03070713          	addi	a4,a4,48
    1178:	0ff77713          	andi	a4,a4,255
    117c:	01df05b3          	add	a1,t5,t4
    1180:	fee58fa3          	sb	a4,-1(a1)
    1184:	00080663          	beqz	a6,1190 <print_dec+0x88>
    1188:	00080513          	mv	a0,a6
    118c:	f99ff06f          	j	1124 <print_dec+0x1c>
    1190:	100006b7          	lui	a3,0x10000
    1194:	1f300613          	li	a2,499
    1198:	0046a783          	lw	a5,4(a3) # 10000004 <_stack_top+0xff00004>
    119c:	0027f793          	andi	a5,a5,2
    11a0:	fe079ce3          	bnez	a5,1198 <print_dec+0x90>
    11a4:	00e6a023          	sw	a4,0(a3)
    11a8:	00012023          	sw	zero,0(sp)
    11ac:	00012783          	lw	a5,0(sp)
    11b0:	00f64c63          	blt	a2,a5,11c8 <print_dec+0xc0>
    11b4:	00012783          	lw	a5,0(sp)
    11b8:	00178793          	addi	a5,a5,1
    11bc:	00f12023          	sw	a5,0(sp)
    11c0:	00012783          	lw	a5,0(sp)
    11c4:	fef658e3          	bge	a2,a5,11b4 <print_dec+0xac>
    11c8:	fff58593          	addi	a1,a1,-1
    11cc:	04bf0663          	beq	t5,a1,1218 <print_dec+0x110>
    11d0:	fff5c703          	lbu	a4,-1(a1)
    11d4:	fc5ff06f          	j	1198 <print_dec+0x90>
    11d8:	10000737          	lui	a4,0x10000
    11dc:	00472783          	lw	a5,4(a4) # 10000004 <_stack_top+0xff00004>
    11e0:	0027f793          	andi	a5,a5,2
    11e4:	fe079ce3          	bnez	a5,11dc <print_dec+0xd4>
    11e8:	03000793          	li	a5,48
    11ec:	00f72023          	sw	a5,0(a4)
    11f0:	00012223          	sw	zero,4(sp)
    11f4:	00412683          	lw	a3,4(sp)
    11f8:	1f300793          	li	a5,499
    11fc:	1f300713          	li	a4,499
    1200:	00d7cc63          	blt	a5,a3,1218 <print_dec+0x110>
    1204:	00412783          	lw	a5,4(sp)
    1208:	00178793          	addi	a5,a5,1
    120c:	00f12223          	sw	a5,4(sp)
    1210:	00412783          	lw	a5,4(sp)
    1214:	fef758e3          	bge	a4,a5,1204 <print_dec+0xfc>
    1218:	01010113          	addi	sp,sp,16
    121c:	00008067          	ret

00001220 <read_cycles>:
    1220:	b0002573          	csrr	a0,mcycle
    1224:	00008067          	ret

00001228 <dma_transfer>:
    1228:	00b6a223          	sw	a1,4(a3)
    122c:	00a6a423          	sw	a0,8(a3)
    1230:	00c6a623          	sw	a2,12(a3)
    1234:	0006a023          	sw	zero,0(a3)
    1238:	0ff0000f          	fence
    123c:	100027b7          	lui	a5,0x10002
    1240:	00100713          	li	a4,1
    1244:	00d7a423          	sw	a3,8(a5) # 10002008 <_stack_top+0xff02008>
    1248:	00e7a023          	sw	a4,0(a5)
    124c:	10002737          	lui	a4,0x10002
    1250:	00472783          	lw	a5,4(a4) # 10002004 <_stack_top+0xff02004>
    1254:	0027f793          	andi	a5,a5,2
    1258:	fe078ce3          	beqz	a5,1250 <dma_transfer+0x28>
    125c:	00008067          	ret

00001260 <cpu_memcpy>:
    1260:	02060263          	beqz	a2,1284 <cpu_memcpy+0x24>
    1264:	00c50633          	add	a2,a0,a2
    1268:	0005c783          	lbu	a5,0(a1)
    126c:	00050713          	mv	a4,a0
    1270:	00150513          	addi	a0,a0,1
    1274:	0ff7f793          	andi	a5,a5,255
    1278:	00f70023          	sb	a5,0(a4)
    127c:	00158593          	addi	a1,a1,1
    1280:	fec514e3          	bne	a0,a2,1268 <cpu_memcpy+0x8>
    1284:	00008067          	ret

Disassembly of section .text.startup:

00001288 <main>:
    1288:	f6010113          	addi	sp,sp,-160
    128c:	02012623          	sw	zero,44(sp)
    1290:	02c12783          	lw	a5,44(sp)
    1294:	00002737          	lui	a4,0x2
    1298:	08112e23          	sw	ra,156(sp)
    129c:	08812c23          	sw	s0,152(sp)
    12a0:	08912a23          	sw	s1,148(sp)
    12a4:	09212823          	sw	s2,144(sp)
    12a8:	09312623          	sw	s3,140(sp)
    12ac:	09412423          	sw	s4,136(sp)
    12b0:	09512223          	sw	s5,132(sp)
    12b4:	09612023          	sw	s6,128(sp)
    12b8:	07712e23          	sw	s7,124(sp)
    12bc:	07812c23          	sw	s8,120(sp)
    12c0:	07912a23          	sw	s9,116(sp)
    12c4:	07a12823          	sw	s10,112(sp)
    12c8:	07b12623          	sw	s11,108(sp)
    12cc:	70f70713          	addi	a4,a4,1807 # 270f <dst_buf+0xfaf>
    12d0:	00f74c63          	blt	a4,a5,12e8 <main+0x60>
    12d4:	02c12783          	lw	a5,44(sp)
    12d8:	00178793          	addi	a5,a5,1
    12dc:	02f12623          	sw	a5,44(sp)
    12e0:	02c12783          	lw	a5,44(sp)
    12e4:	fef758e3          	bge	a4,a5,12d4 <main+0x4c>
    12e8:	00001537          	lui	a0,0x1
    12ec:	69c50513          	addi	a0,a0,1692 # 169c <main+0x414>
    12f0:	dbdff0ef          	jal	ra,10ac <print_str>
    12f4:	00001537          	lui	a0,0x1
    12f8:	6c050513          	addi	a0,a0,1728 # 16c0 <main+0x438>
    12fc:	db1ff0ef          	jal	ra,10ac <print_str>
    1300:	00001537          	lui	a0,0x1
    1304:	6e850513          	addi	a0,a0,1768 # 16e8 <main+0x460>
    1308:	da5ff0ef          	jal	ra,10ac <print_str>
    130c:	000027b7          	lui	a5,0x2
    1310:	76078713          	addi	a4,a5,1888 # 2760 <src_buf>
    1314:	00e12623          	sw	a4,12(sp)
    1318:	00000793          	li	a5,0
    131c:	000016b7          	lui	a3,0x1
    1320:	00f70023          	sb	a5,0(a4)
    1324:	00178793          	addi	a5,a5,1
    1328:	00170713          	addi	a4,a4,1
    132c:	fed79ae3          	bne	a5,a3,1320 <main+0x98>
    1330:	000017b7          	lui	a5,0x1
    1334:	72c78793          	addi	a5,a5,1836 # 172c <main+0x4a4>
    1338:	0007a803          	lw	a6,0(a5)
    133c:	0047a503          	lw	a0,4(a5)
    1340:	0087a583          	lw	a1,8(a5)
    1344:	00c7a603          	lw	a2,12(a5)
    1348:	0107a683          	lw	a3,16(a5)
    134c:	0147a703          	lw	a4,20(a5)
    1350:	0187a783          	lw	a5,24(a5)
    1354:	00001cb7          	lui	s9,0x1
    1358:	00001c37          	lui	s8,0x1
    135c:	04f12e23          	sw	a5,92(sp)
    1360:	684c8793          	addi	a5,s9,1668 # 1684 <main+0x3fc>
    1364:	00001bb7          	lui	s7,0x1
    1368:	00f12823          	sw	a5,16(sp)
    136c:	688c0793          	addi	a5,s8,1672 # 1688 <main+0x400>
    1370:	00f12a23          	sw	a5,20(sp)
    1374:	690b8793          	addi	a5,s7,1680 # 1690 <main+0x408>
    1378:	00f12c23          	sw	a5,24(sp)
    137c:	000027b7          	lui	a5,0x2
    1380:	00001a37          	lui	s4,0x1
    1384:	00001937          	lui	s2,0x1
    1388:	000014b7          	lui	s1,0x1
    138c:	76078793          	addi	a5,a5,1888 # 2760 <src_buf>
    1390:	05012223          	sw	a6,68(sp)
    1394:	04a12423          	sw	a0,72(sp)
    1398:	04b12623          	sw	a1,76(sp)
    139c:	04c12823          	sw	a2,80(sp)
    13a0:	04d12a23          	sw	a3,84(sp)
    13a4:	04e12c23          	sw	a4,88(sp)
    13a8:	760a0a13          	addi	s4,s4,1888 # 1760 <dst_buf>
    13ac:	75090913          	addi	s2,s2,1872 # 1750 <my_desc>
    13b0:	04410993          	addi	s3,sp,68
    13b4:	69848493          	addi	s1,s1,1688 # 1698 <main+0x410>
    13b8:	00f12e23          	sw	a5,28(sp)
    13bc:	10002437          	lui	s0,0x10002
    13c0:	00100b93          	li	s7,1
    13c4:	00900d13          	li	s10,9
    13c8:	1f300d93          	li	s11,499
    13cc:	b0002873          	csrr	a6,mcycle
    13d0:	0009a503          	lw	a0,0(s3)
    13d4:	02050c63          	beqz	a0,140c <main+0x184>
    13d8:	00c12783          	lw	a5,12(sp)
    13dc:	000a0313          	mv	t1,s4
    13e0:	00a78eb3          	add	t4,a5,a0
    13e4:	01c12783          	lw	a5,28(sp)
    13e8:	00f12623          	sw	a5,12(sp)
    13ec:	000027b7          	lui	a5,0x2
    13f0:	76078713          	addi	a4,a5,1888 # 2760 <src_buf>
    13f4:	00074583          	lbu	a1,0(a4)
    13f8:	00170713          	addi	a4,a4,1
    13fc:	00130313          	addi	t1,t1,1
    1400:	0ff5f593          	andi	a1,a1,255
    1404:	feb30fa3          	sb	a1,-1(t1)
    1408:	ffd716e3          	bne	a4,t4,13f4 <main+0x16c>
    140c:	b0002373          	csrr	t1,mcycle
    1410:	41030ab3          	sub	s5,t1,a6
    1414:	b0002e73          	csrr	t3,mcycle
    1418:	000027b7          	lui	a5,0x2
    141c:	76078793          	addi	a5,a5,1888 # 2760 <src_buf>
    1420:	00f92223          	sw	a5,4(s2)
    1424:	01492423          	sw	s4,8(s2)
    1428:	00a92623          	sw	a0,12(s2)
    142c:	00092023          	sw	zero,0(s2)
    1430:	0ff0000f          	fence
    1434:	01242423          	sw	s2,8(s0) # 10002008 <_stack_top+0xff02008>
    1438:	01742023          	sw	s7,0(s0)
    143c:	00442703          	lw	a4,4(s0)
    1440:	00277713          	andi	a4,a4,2
    1444:	fe070ce3          	beqz	a4,143c <main+0x1b4>
    1448:	b00027f3          	csrr	a5,mcycle
    144c:	00000c13          	li	s8,0
    1450:	41c78b33          	sub	s6,a5,t3
    1454:	00000c93          	li	s9,0
    1458:	1fc79063          	bne	a5,t3,1638 <main+0x3b0>
    145c:	cadff0ef          	jal	ra,1108 <print_dec>
    1460:	01012e03          	lw	t3,16(sp)
    1464:	00900e93          	li	t4,9
    1468:	10000537          	lui	a0,0x10000
    146c:	001e0e13          	addi	t3,t3,1
    1470:	00452703          	lw	a4,4(a0) # 10000004 <_stack_top+0xff00004>
    1474:	00277713          	andi	a4,a4,2
    1478:	fe071ce3          	bnez	a4,1470 <main+0x1e8>
    147c:	01d52023          	sw	t4,0(a0)
    1480:	02012823          	sw	zero,48(sp)
    1484:	03012703          	lw	a4,48(sp)
    1488:	00edcc63          	blt	s11,a4,14a0 <main+0x218>
    148c:	03012703          	lw	a4,48(sp)
    1490:	00170713          	addi	a4,a4,1
    1494:	02e12823          	sw	a4,48(sp)
    1498:	03012703          	lw	a4,48(sp)
    149c:	feedd8e3          	bge	s11,a4,148c <main+0x204>
    14a0:	000e4e83          	lbu	t4,0(t3)
    14a4:	fc0e94e3          	bnez	t4,146c <main+0x1e4>
    14a8:	000a8513          	mv	a0,s5
    14ac:	c5dff0ef          	jal	ra,1108 <print_dec>
    14b0:	01412303          	lw	t1,20(sp)
    14b4:	00900e13          	li	t3,9
    14b8:	10000537          	lui	a0,0x10000
    14bc:	00130313          	addi	t1,t1,1
    14c0:	00452703          	lw	a4,4(a0) # 10000004 <_stack_top+0xff00004>
    14c4:	00277713          	andi	a4,a4,2
    14c8:	fe071ce3          	bnez	a4,14c0 <main+0x238>
    14cc:	01c52023          	sw	t3,0(a0)
    14d0:	02012a23          	sw	zero,52(sp)
    14d4:	03412703          	lw	a4,52(sp)
    14d8:	00edcc63          	blt	s11,a4,14f0 <main+0x268>
    14dc:	03412703          	lw	a4,52(sp)
    14e0:	00170713          	addi	a4,a4,1
    14e4:	02e12a23          	sw	a4,52(sp)
    14e8:	03412703          	lw	a4,52(sp)
    14ec:	feedd8e3          	bge	s11,a4,14dc <main+0x254>
    14f0:	00034e03          	lbu	t3,0(t1)
    14f4:	fc0e14e3          	bnez	t3,14bc <main+0x234>
    14f8:	000b0513          	mv	a0,s6
    14fc:	c0dff0ef          	jal	ra,1108 <print_dec>
    1500:	01812303          	lw	t1,24(sp)
    1504:	00900713          	li	a4,9
    1508:	100008b7          	lui	a7,0x10000
    150c:	00130313          	addi	t1,t1,1
    1510:	0048a503          	lw	a0,4(a7) # 10000004 <_stack_top+0xff00004>
    1514:	00257513          	andi	a0,a0,2
    1518:	fe051ce3          	bnez	a0,1510 <main+0x288>
    151c:	00e8a023          	sw	a4,0(a7)
    1520:	02012c23          	sw	zero,56(sp)
    1524:	03812703          	lw	a4,56(sp)
    1528:	00edcc63          	blt	s11,a4,1540 <main+0x2b8>
    152c:	03812703          	lw	a4,56(sp)
    1530:	00170713          	addi	a4,a4,1
    1534:	02e12c23          	sw	a4,56(sp)
    1538:	03812703          	lw	a4,56(sp)
    153c:	feedd8e3          	bge	s11,a4,152c <main+0x2a4>
    1540:	00034703          	lbu	a4,0(t1)
    1544:	fc0714e3          	bnez	a4,150c <main+0x284>
    1548:	01f00713          	li	a4,31
    154c:	fff00e93          	li	t4,-1
    1550:	fff70713          	addi	a4,a4,-1
    1554:	00ecd8b3          	srl	a7,s9,a4
    1558:	001c1313          	slli	t1,s8,0x1
    155c:	0018f893          	andi	a7,a7,1
    1560:	00eb9e33          	sll	t3,s7,a4
    1564:	03d70663          	beq	a4,t4,1590 <main+0x308>
    1568:	0068ec33          	or	s8,a7,t1
    156c:	ff8d72e3          	bgeu	s10,s8,1550 <main+0x2c8>
    1570:	fff70713          	addi	a4,a4,-1
    1574:	ff6c0c13          	addi	s8,s8,-10
    1578:	00ecd8b3          	srl	a7,s9,a4
    157c:	01c56533          	or	a0,a0,t3
    1580:	001c1313          	slli	t1,s8,0x1
    1584:	0018f893          	andi	a7,a7,1
    1588:	00eb9e33          	sll	t3,s7,a4
    158c:	fdd71ee3          	bne	a4,t4,1568 <main+0x2e0>
    1590:	b79ff0ef          	jal	ra,1108 <print_dec>
    1594:	10000537          	lui	a0,0x10000
    1598:	00452703          	lw	a4,4(a0) # 10000004 <_stack_top+0xff00004>
    159c:	00277713          	andi	a4,a4,2
    15a0:	fe071ce3          	bnez	a4,1598 <main+0x310>
    15a4:	02e00713          	li	a4,46
    15a8:	00e52023          	sw	a4,0(a0)
    15ac:	02012e23          	sw	zero,60(sp)
    15b0:	03c12703          	lw	a4,60(sp)
    15b4:	00edcc63          	blt	s11,a4,15cc <main+0x344>
    15b8:	03c12703          	lw	a4,60(sp)
    15bc:	00170713          	addi	a4,a4,1
    15c0:	02e12e23          	sw	a4,60(sp)
    15c4:	03c12703          	lw	a4,60(sp)
    15c8:	feedd8e3          	bge	s11,a4,15b8 <main+0x330>
    15cc:	000c0513          	mv	a0,s8
    15d0:	b39ff0ef          	jal	ra,1108 <print_dec>
    15d4:	07800813          	li	a6,120
    15d8:	00048513          	mv	a0,s1
    15dc:	100005b7          	lui	a1,0x10000
    15e0:	00150513          	addi	a0,a0,1
    15e4:	0045a703          	lw	a4,4(a1) # 10000004 <_stack_top+0xff00004>
    15e8:	00277713          	andi	a4,a4,2
    15ec:	fe071ce3          	bnez	a4,15e4 <main+0x35c>
    15f0:	0105a023          	sw	a6,0(a1)
    15f4:	04012023          	sw	zero,64(sp)
    15f8:	04012703          	lw	a4,64(sp)
    15fc:	00edcc63          	blt	s11,a4,1614 <main+0x38c>
    1600:	04012703          	lw	a4,64(sp)
    1604:	00170713          	addi	a4,a4,1
    1608:	04e12023          	sw	a4,64(sp)
    160c:	04012703          	lw	a4,64(sp)
    1610:	feedd8e3          	bge	s11,a4,1600 <main+0x378>
    1614:	00054803          	lbu	a6,0(a0)
    1618:	fc0814e3          	bnez	a6,15e0 <main+0x358>
    161c:	00498993          	addi	s3,s3,4
    1620:	06010793          	addi	a5,sp,96
    1624:	daf994e3          	bne	s3,a5,13cc <main+0x144>
    1628:	00001537          	lui	a0,0x1
    162c:	71050513          	addi	a0,a0,1808 # 1710 <main+0x488>
    1630:	a7dff0ef          	jal	ra,10ac <print_str>
    1634:	0000006f          	j	1634 <main+0x3ac>
    1638:	002a9e93          	slli	t4,s5,0x2
    163c:	015e8eb3          	add	t4,t4,s5
    1640:	001e9e93          	slli	t4,t4,0x1
    1644:	01f00593          	li	a1,31
    1648:	00000713          	li	a4,0
    164c:	40fe0fb3          	sub	t6,t3,a5
    1650:	fff00f13          	li	t5,-1
    1654:	00bede33          	srl	t3,t4,a1
    1658:	001e7e13          	andi	t3,t3,1
    165c:	00171713          	slli	a4,a4,0x1
    1660:	00ee6733          	or	a4,t3,a4
    1664:	00bb9e33          	sll	t3,s7,a1
    1668:	fff58593          	addi	a1,a1,-1
    166c:	01676663          	bltu	a4,s6,1678 <main+0x3f0>
    1670:	01f70733          	add	a4,a4,t6
    1674:	01ccecb3          	or	s9,s9,t3
    1678:	fde59ee3          	bne	a1,t5,1654 <main+0x3cc>
    167c:	01fcdc13          	srli	s8,s9,0x1f
    1680:	dddff06f          	j	145c <main+0x1d4>
